target datalayout = "e-m:e-p270:32:32-p271:32:32-p272:64:64-i64:64-i128:128-f80:128-n8:16:32:64-S128"
target triple = "x86_64-pc-linux-gnu"

%struct._zend_executor_globals = type { %struct._zval_struct, %struct._zval_struct, [32 x ptr], ptr, ptr, %struct._zend_array, %struct._zend_array, ptr, i32, i32, ptr, ptr, ptr, ptr, ptr, ptr, i64, ptr, ptr, i32, i32, i64, i32, i32, i32, i8, i8, %struct.zend_atomic_bool_s, %struct.zend_atomic_bool_s, ptr, i64, ptr, ptr, %struct._zend_array, %struct._zend_array, i32, i8, %struct._zval_struct, %struct._zval_struct, %struct._zend_stack, %struct._zend_stack, %struct._zend_stack, ptr, i32, i32, i64, ptr, ptr, ptr, %struct._zend_objects_store, ptr, ptr, ptr, [3 x %struct._zend_op], ptr, i8, i8, i64, i32, i32, ptr, [16 x %struct._HashTableIterator], ptr, %union._zend_function, %struct._zend_op, %struct._zend_array, i64, %struct.zend_get_gc_buffer, ptr, ptr, ptr, i64, i8, i32, ptr, ptr, i64, %struct._zend_call_stack, i64, i64, [6 x ptr] }
%struct.zend_atomic_bool_s = type { i8 }
%struct._zval_struct = type { %union._zend_value, %union.anon, %union.anon.2 }
%union._zend_value = type { i64 }
%union.anon = type { i32 }
%union.anon.2 = type { i32 }
%struct._zend_stack = type { i32, i32, i32, ptr }
%struct._zend_objects_store = type { ptr, i32, i32, i32 }
%struct._HashTableIterator = type { ptr, i32, i32 }
%union._zend_function = type { %struct._zend_op_array }
%struct._zend_op_array = type { i8, [3 x i8], i32, ptr, ptr, ptr, i32, i32, ptr, ptr, ptr, ptr, i32, i32, i32, i32, ptr, ptr, ptr, ptr, ptr, i32, i32, ptr, ptr, ptr, i32, i32, i32, i32, ptr, ptr, [6 x ptr] }
%struct._zend_op = type { ptr, %union._znode_op, %union._znode_op, %union._znode_op, i32, i32, i8, i8, i8, i8 }
%union._znode_op = type { i32 }
%struct._zend_array = type { %struct._zend_refcounted_h, %union.anon.4, i32, %union.anon.6, i32, i32, i32, i32, i64, ptr }
%struct._zend_refcounted_h = type { i32, %union.anon.3 }
%union.anon.3 = type { i32 }
%union.anon.4 = type { i32 }
%union.anon.6 = type { ptr }
%struct.zend_get_gc_buffer = type { ptr, ptr, ptr }
%struct._zend_call_stack = type { ptr, i64 }
%struct._zend_execute_data = type { ptr, ptr, ptr, ptr, %struct._zval_struct, ptr, ptr, ptr, ptr }

@executor_globals = external global %struct._zend_executor_globals, align 8
@.str.2 = private unnamed_addr constant [23 x i8] c"must be greater than 0\00", align 1

; Function Attrs: nounwind uwtable
define hidden void @zif_log(ptr noundef %0, ptr noundef %1) #0 {
  %3 = alloca ptr, align 8
  %4 = alloca ptr, align 8
  %5 = alloca i1, align 1
  %6 = alloca ptr, align 8
  %7 = alloca ptr, align 8
  %8 = alloca ptr, align 8
  %9 = alloca i8, align 1
  %10 = alloca i32, align 4
  %11 = alloca ptr, align 8
  %12 = alloca ptr, align 8
  %13 = alloca i1, align 1
  %14 = alloca ptr, align 8
  %15 = alloca ptr, align 8
  %16 = alloca ptr, align 8
  %17 = alloca i8, align 1
  %18 = alloca i32, align 4
  %19 = alloca ptr, align 8
  %20 = alloca ptr, align 8
  %21 = alloca double, align 8
  %22 = alloca double, align 8
  %23 = alloca i32, align 4
  %24 = alloca i32, align 4
  %25 = alloca i32, align 4
  %26 = alloca i32, align 4
  %27 = alloca i32, align 4
  %28 = alloca ptr, align 8
  %29 = alloca ptr, align 8
  %30 = alloca i32, align 4
  %31 = alloca ptr, align 8
  %32 = alloca i8, align 1
  %33 = alloca i8, align 1
  %34 = alloca i32, align 4
  %35 = alloca ptr, align 8
  %36 = alloca ptr, align 8
  %37 = alloca ptr, align 8
  %38 = alloca ptr, align 8
  %39 = alloca ptr, align 8
  store ptr %0, ptr %19, align 8
  store ptr %1, ptr %20, align 8
  store double 0.000000e+00, ptr %22, align 8
  br label %40

40:                                               ; preds = %2
  store i32 0, ptr %23, align 4
  store i32 1, ptr %24, align 4
  store i32 2, ptr %25, align 4
  %41 = load ptr, ptr %19, align 8
  %42 = getelementptr inbounds %struct._zend_execute_data, ptr %41, i32 0, i32 4
  %43 = getelementptr inbounds %struct._zval_struct, ptr %42, i32 0, i32 2
  %44 = load i32, ptr %43, align 4
  store i32 %44, ptr %26, align 4
  store i32 0, ptr %27, align 4
  store ptr null, ptr %29, align 8
  store i32 0, ptr %30, align 4
  store ptr null, ptr %31, align 8
  store i8 0, ptr %32, align 1
  store i8 0, ptr %33, align 1
  store i32 0, ptr %34, align 4
  br label %45

45:                                               ; preds = %40
  %46 = load i32, ptr %26, align 4
  %47 = load i32, ptr %24, align 4
  %48 = icmp ult i32 %46, %47
  %49 = xor i1 %48, true
  %50 = xor i1 %49, true
  %51 = zext i1 %50 to i32
  %52 = sext i32 %51 to i64
  %53 = icmp ne i64 %52, 0
  br i1 %53, label %63, label %54

54:                                               ; preds = %45
  %55 = load i32, ptr %26, align 4
  %56 = load i32, ptr %25, align 4
  %57 = icmp ugt i32 %55, %56
  %58 = xor i1 %57, true
  %59 = xor i1 %58, true
  %60 = zext i1 %59 to i32
  %61 = sext i32 %60 to i64
  %62 = icmp ne i64 %61, 0
  br i1 %62, label %63, label %66

63:                                               ; preds = %54, %45
  %64 = load i32, ptr %24, align 4
  %65 = load i32, ptr %25, align 4
  call void @zend_wrong_parameters_count_error(i32 noundef %64, i32 noundef %65)
  store i32 1, ptr %34, align 4
  br label %247

66:                                               ; preds = %54
  %67 = load ptr, ptr %19, align 8
  %68 = getelementptr inbounds %struct._zval_struct, ptr %67, i64 4
  store ptr %68, ptr %28, align 8
  %69 = load i32, ptr %27, align 4
  %70 = add i32 %69, 1
  store i32 %70, ptr %27, align 4
  %71 = load i32, ptr %27, align 4
  %72 = load i32, ptr %24, align 4
  %73 = icmp ule i32 %71, %72
  br i1 %73, label %79, label %74

74:                                               ; preds = %66
  %75 = load i8, ptr %33, align 1
  %76 = trunc i8 %75 to i1
  %77 = zext i1 %76 to i32
  %78 = icmp eq i32 %77, 1
  br label %79

79:                                               ; preds = %74, %66
  %80 = phi i1 [ true, %66 ], [ %78, %74 ]
  call void @llvm.assume(i1 %80)
  %81 = load i32, ptr %27, align 4
  %82 = load i32, ptr %24, align 4
  %83 = icmp ugt i32 %81, %82
  br i1 %83, label %89, label %84

84:                                               ; preds = %79
  %85 = load i8, ptr %33, align 1
  %86 = trunc i8 %85 to i1
  %87 = zext i1 %86 to i32
  %88 = icmp eq i32 %87, 0
  br label %89

89:                                               ; preds = %84, %79
  %90 = phi i1 [ true, %79 ], [ %88, %84 ]
  call void @llvm.assume(i1 %90)
  %91 = load i8, ptr %33, align 1
  %92 = trunc i8 %91 to i1
  br i1 %92, label %93, label %104

93:                                               ; preds = %89
  %94 = load i32, ptr %27, align 4
  %95 = load i32, ptr %26, align 4
  %96 = icmp ugt i32 %94, %95
  %97 = xor i1 %96, true
  %98 = xor i1 %97, true
  %99 = zext i1 %98 to i32
  %100 = sext i32 %99 to i64
  %101 = icmp ne i64 %100, 0
  br i1 %101, label %102, label %103

102:                                              ; preds = %93
  br label %247

103:                                              ; preds = %93
  br label %104

104:                                              ; preds = %103, %89
  %105 = load ptr, ptr %28, align 8
  %106 = getelementptr inbounds %struct._zval_struct, ptr %105, i32 1
  store ptr %106, ptr %28, align 8
  %107 = load ptr, ptr %28, align 8
  store ptr %107, ptr %29, align 8
  %108 = load ptr, ptr %29, align 8
  %109 = load i32, ptr %27, align 4
  store ptr %108, ptr %6, align 8
  store ptr %21, ptr %7, align 8
  store ptr %32, ptr %8, align 8
  store i8 0, ptr %9, align 1
  store i32 %109, ptr %10, align 4
  %110 = load i8, ptr %9, align 1
  %111 = trunc i8 %110 to i1
  br i1 %111, label %112, label %114

112:                                              ; preds = %104
  %113 = load ptr, ptr %8, align 8
  store i8 0, ptr %113, align 1
  br label %114

114:                                              ; preds = %112, %104
  %115 = load ptr, ptr %6, align 8
  store ptr %115, ptr %3, align 8
  %116 = load ptr, ptr %3, align 8
  %117 = getelementptr inbounds %struct._zval_struct, ptr %116, i32 0, i32 1
  %118 = load i8, ptr %117, align 8
  %119 = zext i8 %118 to i32
  %120 = icmp eq i32 %119, 5
  br i1 %120, label %121, label %125

121:                                              ; preds = %114
  %122 = load ptr, ptr %6, align 8
  %123 = load double, ptr %122, align 8
  %124 = load ptr, ptr %7, align 8
  store double %123, ptr %124, align 8
  br label %143

125:                                              ; preds = %114
  %126 = load i8, ptr %9, align 1
  %127 = trunc i8 %126 to i1
  br i1 %127, label %128, label %138

128:                                              ; preds = %125
  %129 = load ptr, ptr %6, align 8
  store ptr %129, ptr %4, align 8
  %130 = load ptr, ptr %4, align 8
  %131 = getelementptr inbounds %struct._zval_struct, ptr %130, i32 0, i32 1
  %132 = load i8, ptr %131, align 8
  %133 = zext i8 %132 to i32
  %134 = icmp eq i32 %133, 1
  br i1 %134, label %135, label %138

135:                                              ; preds = %128
  %136 = load ptr, ptr %8, align 8
  store i8 1, ptr %136, align 1
  %137 = load ptr, ptr %7, align 8
  store double 0.000000e+00, ptr %137, align 8
  br label %143

138:                                              ; preds = %128, %125
  %139 = load ptr, ptr %6, align 8
  %140 = load ptr, ptr %7, align 8
  %141 = load i32, ptr %10, align 4
  %142 = call zeroext i1 @zend_parse_arg_double_slow(ptr noundef %139, ptr noundef %140, i32 noundef %141) #12
  store i1 %142, ptr %5, align 1
  br label %144

143:                                              ; preds = %135, %121
  store i1 true, ptr %5, align 1
  br label %144

144:                                              ; preds = %143, %138
  %145 = load i1, ptr %5, align 1
  %146 = xor i1 %145, true
  %147 = xor i1 %146, true
  %148 = xor i1 %147, true
  %149 = zext i1 %148 to i32
  %150 = sext i32 %149 to i64
  %151 = icmp ne i64 %150, 0
  br i1 %151, label %152, label %153

152:                                              ; preds = %144
  store i32 20, ptr %30, align 4
  store i32 9, ptr %34, align 4
  br label %247

153:                                              ; preds = %144
  store i8 1, ptr %33, align 1
  %154 = load i32, ptr %27, align 4
  %155 = add i32 %154, 1
  store i32 %155, ptr %27, align 4
  %156 = load i32, ptr %27, align 4
  %157 = load i32, ptr %24, align 4
  %158 = icmp ule i32 %156, %157
  br i1 %158, label %164, label %159

159:                                              ; preds = %153
  %160 = load i8, ptr %33, align 1
  %161 = trunc i8 %160 to i1
  %162 = zext i1 %161 to i32
  %163 = icmp eq i32 %162, 1
  br label %164

164:                                              ; preds = %159, %153
  %165 = phi i1 [ true, %153 ], [ %163, %159 ]
  call void @llvm.assume(i1 %165)
  %166 = load i32, ptr %27, align 4
  %167 = load i32, ptr %24, align 4
  %168 = icmp ugt i32 %166, %167
  br i1 %168, label %174, label %169

169:                                              ; preds = %164
  %170 = load i8, ptr %33, align 1
  %171 = trunc i8 %170 to i1
  %172 = zext i1 %171 to i32
  %173 = icmp eq i32 %172, 0
  br label %174

174:                                              ; preds = %169, %164
  %175 = phi i1 [ true, %164 ], [ %173, %169 ]
  call void @llvm.assume(i1 %175)
  %176 = load i8, ptr %33, align 1
  %177 = trunc i8 %176 to i1
  br i1 %177, label %178, label %189

178:                                              ; preds = %174
  %179 = load i32, ptr %27, align 4
  %180 = load i32, ptr %26, align 4
  %181 = icmp ugt i32 %179, %180
  %182 = xor i1 %181, true
  %183 = xor i1 %182, true
  %184 = zext i1 %183 to i32
  %185 = sext i32 %184 to i64
  %186 = icmp ne i64 %185, 0
  br i1 %186, label %187, label %188

187:                                              ; preds = %178
  br label %247

188:                                              ; preds = %178
  br label %189

189:                                              ; preds = %188, %174
  %190 = load ptr, ptr %28, align 8
  %191 = getelementptr inbounds %struct._zval_struct, ptr %190, i32 1
  store ptr %191, ptr %28, align 8
  %192 = load ptr, ptr %28, align 8
  store ptr %192, ptr %29, align 8
  %193 = load ptr, ptr %29, align 8
  %194 = load i32, ptr %27, align 4
  store ptr %193, ptr %14, align 8
  store ptr %22, ptr %15, align 8
  store ptr %32, ptr %16, align 8
  store i8 0, ptr %17, align 1
  store i32 %194, ptr %18, align 4
  %195 = load i8, ptr %17, align 1
  %196 = trunc i8 %195 to i1
  br i1 %196, label %197, label %199

197:                                              ; preds = %189
  %198 = load ptr, ptr %16, align 8
  store i8 0, ptr %198, align 1
  br label %199

199:                                              ; preds = %197, %189
  %200 = load ptr, ptr %14, align 8
  store ptr %200, ptr %11, align 8
  %201 = load ptr, ptr %11, align 8
  %202 = getelementptr inbounds %struct._zval_struct, ptr %201, i32 0, i32 1
  %203 = load i8, ptr %202, align 8
  %204 = zext i8 %203 to i32
  %205 = icmp eq i32 %204, 5
  br i1 %205, label %206, label %210

206:                                              ; preds = %199
  %207 = load ptr, ptr %14, align 8
  %208 = load double, ptr %207, align 8
  %209 = load ptr, ptr %15, align 8
  store double %208, ptr %209, align 8
  br label %228

210:                                              ; preds = %199
  %211 = load i8, ptr %17, align 1
  %212 = trunc i8 %211 to i1
  br i1 %212, label %213, label %223

213:                                              ; preds = %210
  %214 = load ptr, ptr %14, align 8
  store ptr %214, ptr %12, align 8
  %215 = load ptr, ptr %12, align 8
  %216 = getelementptr inbounds %struct._zval_struct, ptr %215, i32 0, i32 1
  %217 = load i8, ptr %216, align 8
  %218 = zext i8 %217 to i32
  %219 = icmp eq i32 %218, 1
  br i1 %219, label %220, label %223

220:                                              ; preds = %213
  %221 = load ptr, ptr %16, align 8
  store i8 1, ptr %221, align 1
  %222 = load ptr, ptr %15, align 8
  store double 0.000000e+00, ptr %222, align 8
  br label %228

223:                                              ; preds = %213, %210
  %224 = load ptr, ptr %14, align 8
  %225 = load ptr, ptr %15, align 8
  %226 = load i32, ptr %18, align 4
  %227 = call zeroext i1 @zend_parse_arg_double_slow(ptr noundef %224, ptr noundef %225, i32 noundef %226) #12
  store i1 %227, ptr %13, align 1
  br label %229

228:                                              ; preds = %220, %206
  store i1 true, ptr %13, align 1
  br label %229

229:                                              ; preds = %228, %223
  %230 = load i1, ptr %13, align 1
  %231 = xor i1 %230, true
  %232 = xor i1 %231, true
  %233 = xor i1 %232, true
  %234 = zext i1 %233 to i32
  %235 = sext i32 %234 to i64
  %236 = icmp ne i64 %235, 0
  br i1 %236, label %237, label %238

237:                                              ; preds = %229
  store i32 20, ptr %30, align 4
  store i32 9, ptr %34, align 4
  br label %247

238:                                              ; preds = %229
  %239 = load i32, ptr %27, align 4
  %240 = load i32, ptr %25, align 4
  %241 = icmp eq i32 %239, %240
  br i1 %241, label %245, label %242

242:                                              ; preds = %238
  %243 = load i32, ptr %25, align 4
  %244 = icmp eq i32 %243, -1
  br label %245

245:                                              ; preds = %242, %238
  %246 = phi i1 [ true, %238 ], [ %244, %242 ]
  call void @llvm.assume(i1 %246)
  br label %247

247:                                              ; preds = %245, %237, %187, %152, %102, %63
  %248 = load i32, ptr %34, align 4
  %249 = icmp ne i32 %248, 0
  %250 = xor i1 %249, true
  %251 = xor i1 %250, true
  %252 = zext i1 %251 to i32
  %253 = sext i32 %252 to i64
  %254 = icmp ne i64 %253, 0
  br i1 %254, label %255, label %261

255:                                              ; preds = %247
  %256 = load i32, ptr %34, align 4
  %257 = load i32, ptr %27, align 4
  %258 = load ptr, ptr %31, align 8
  %259 = load i32, ptr %30, align 4
  %260 = load ptr, ptr %29, align 8
  call void @zend_wrong_parameter_error(i32 noundef %256, i32 noundef %257, ptr noundef %258, i32 noundef %259, ptr noundef %260)
  br label %345

261:                                              ; preds = %247
  br label %262

262:                                              ; preds = %261
  %263 = load ptr, ptr %19, align 8
  %264 = getelementptr inbounds %struct._zend_execute_data, ptr %263, i32 0, i32 4
  %265 = getelementptr inbounds %struct._zval_struct, ptr %264, i32 0, i32 2
  %266 = load i32, ptr %265, align 4
  %267 = icmp eq i32 %266, 1
  br i1 %267, label %268, label %280

268:                                              ; preds = %262
  br label %269

269:                                              ; preds = %268
  br label %270

270:                                              ; preds = %269
  %271 = load ptr, ptr %20, align 8
  store ptr %271, ptr %35, align 8
  %272 = load double, ptr %21, align 8
  %273 = call double @log(double noundef %272) #12
  %274 = load ptr, ptr %35, align 8
  %275 = getelementptr inbounds %struct._zval_struct, ptr %274, i32 0, i32 0
  store double %273, ptr %275, align 8
  %276 = load ptr, ptr %35, align 8
  %277 = getelementptr inbounds %struct._zval_struct, ptr %276, i32 0, i32 1
  store i32 5, ptr %277, align 8
  br label %278

278:                                              ; preds = %270
  br label %345

279:                                              ; No predecessors!
  br label %280

280:                                              ; preds = %279, %262
  %281 = load double, ptr %22, align 8
  %282 = fcmp oeq double %281, 2.000000e+00
  br i1 %282, label %283, label %295

283:                                              ; preds = %280
  br label %284

284:                                              ; preds = %283
  br label %285

285:                                              ; preds = %284
  %286 = load ptr, ptr %20, align 8
  store ptr %286, ptr %36, align 8
  %287 = load double, ptr %21, align 8
  %288 = call double @log2(double noundef %287) #12
  %289 = load ptr, ptr %36, align 8
  %290 = getelementptr inbounds %struct._zval_struct, ptr %289, i32 0, i32 0
  store double %288, ptr %290, align 8
  %291 = load ptr, ptr %36, align 8
  %292 = getelementptr inbounds %struct._zval_struct, ptr %291, i32 0, i32 1
  store i32 5, ptr %292, align 8
  br label %293

293:                                              ; preds = %285
  br label %345

294:                                              ; No predecessors!
  br label %295

295:                                              ; preds = %294, %280
  %296 = load double, ptr %22, align 8
  %297 = fcmp oeq double %296, 1.000000e+01
  br i1 %297, label %298, label %310

298:                                              ; preds = %295
  br label %299

299:                                              ; preds = %298
  br label %300

300:                                              ; preds = %299
  %301 = load ptr, ptr %20, align 8
  store ptr %301, ptr %37, align 8
  %302 = load double, ptr %21, align 8
  %303 = call double @log10(double noundef %302) #12
  %304 = load ptr, ptr %37, align 8
  %305 = getelementptr inbounds %struct._zval_struct, ptr %304, i32 0, i32 0
  store double %303, ptr %305, align 8
  %306 = load ptr, ptr %37, align 8
  %307 = getelementptr inbounds %struct._zval_struct, ptr %306, i32 0, i32 1
  store i32 5, ptr %307, align 8
  br label %308

308:                                              ; preds = %300
  br label %345

309:                                              ; No predecessors!
  br label %310

310:                                              ; preds = %309, %295
  %311 = load double, ptr %22, align 8
  %312 = fcmp oeq double %311, 1.000000e+00
  br i1 %312, label %313, label %323

313:                                              ; preds = %310
  br label %314

314:                                              ; preds = %313
  br label %315

315:                                              ; preds = %314
  %316 = load ptr, ptr %20, align 8
  store ptr %316, ptr %38, align 8
  %317 = load ptr, ptr %38, align 8
  %318 = getelementptr inbounds %struct._zval_struct, ptr %317, i32 0, i32 0
  store double 0x7FF8000000000000, ptr %318, align 8
  %319 = load ptr, ptr %38, align 8
  %320 = getelementptr inbounds %struct._zval_struct, ptr %319, i32 0, i32 1
  store i32 5, ptr %320, align 8
  br label %321

321:                                              ; preds = %315
  br label %345

322:                                              ; No predecessors!
  br label %323

323:                                              ; preds = %322, %310
  %324 = load double, ptr %22, align 8
  %325 = fcmp ole double %324, 0.000000e+00
  br i1 %325, label %326, label %331

326:                                              ; preds = %323
  call void (i32, ptr, ...) @zend_argument_value_error(i32 noundef 2, ptr noundef @.str.2)
  br label %327

327:                                              ; preds = %326
  %328 = load ptr, ptr getelementptr inbounds (%struct._zend_executor_globals, ptr @executor_globals, i32 0, i32 50), align 8
  %329 = icmp ne ptr %328, null
  call void @llvm.assume(i1 %329)
  br label %345

330:                                              ; No predecessors!
  br label %331

331:                                              ; preds = %330, %323
  br label %332

332:                                              ; preds = %331
  br label %333

333:                                              ; preds = %332
  %334 = load ptr, ptr %20, align 8
  store ptr %334, ptr %39, align 8
  %335 = load double, ptr %21, align 8
  %336 = call double @log(double noundef %335) #12
  %337 = load double, ptr %22, align 8
  %338 = call double @log(double noundef %337) #12
  %339 = fdiv double %336, %338
  %340 = load ptr, ptr %39, align 8
  %341 = getelementptr inbounds %struct._zval_struct, ptr %340, i32 0, i32 0
  store double %339, ptr %341, align 8
  %342 = load ptr, ptr %39, align 8
  %343 = getelementptr inbounds %struct._zval_struct, ptr %342, i32 0, i32 1
  store i32 5, ptr %343, align 8
  br label %344

344:                                              ; preds = %333
  br label %345

345:                                              ; preds = %344, %327, %321, %308, %293, %278, %255
  ret void
}