; Function Attrs: nounwind uwtable
define hidden void @zif_log(ptr noundef %0, ptr nocapture noundef writeonly %1) local_unnamed_addr #0 {
  %3 = alloca double, align 8
  %4 = alloca double, align 8
  store double 0.000000e+00, ptr %4, align 8
  %5 = getelementptr inbounds i8, ptr %0, i64 44
  %6 = load i32, ptr %5, align 4
  %7 = add i32 %6, -3
  %or.cond = icmp ult i32 %7, -2
  br i1 %or.cond, label %8, label %9

8:                                                ; preds = %2
  tail call void @zend_wrong_parameters_count_error(i32 noundef 1, i32 noundef 2) #15
  br label %.thread123

9:                                                ; preds = %2
  %10 = getelementptr inbounds i8, ptr %0, i64 80
  %11 = getelementptr inbounds i8, ptr %0, i64 88
  %12 = load i8, ptr %11, align 8
  %13 = icmp eq i8 %12, 5
  br i1 %13, label %.critedge, label %15

.critedge:                                        ; preds = %9
  %14 = load double, ptr %10, align 8
  store double %14, ptr %3, align 8
  br label %17

15:                                               ; preds = %9
  %16 = call zeroext i1 @zend_parse_arg_double_slow(ptr noundef nonnull %10, ptr noundef nonnull %3, i32 noundef 1) #15
  br i1 %16, label %17, label %.thread123

17:                                               ; preds = %15, %.critedge
  %18 = icmp eq i32 %6, 1
  br i1 %18, label %.thread116, label %19

19:                                               ; preds = %17
  %20 = getelementptr inbounds i8, ptr %0, i64 96
  %21 = getelementptr inbounds i8, ptr %0, i64 104
  %22 = load i8, ptr %21, align 8
  %23 = icmp eq i8 %22, 5
  br i1 %23, label %.thread112, label %25

.thread112:                                       ; preds = %19
  %24 = load double, ptr %20, align 8
  store double %24, ptr %4, align 8
  br label %.thread116

25:                                               ; preds = %19
  %26 = call zeroext i1 @zend_parse_arg_double_slow(ptr noundef nonnull %20, ptr noundef nonnull %4, i32 noundef 2) #15
  %.fr = freeze i1 %26
  br i1 %.fr, label %.thread116, label %.thread123

.thread123:                                       ; preds = %25, %15, %8
  %.091132 = phi i32 [ 1, %15 ], [ 0, %8 ], [ 2, %25 ]
  %.092131 = phi ptr [ %10, %15 ], [ null, %8 ], [ %20, %25 ]
  %.093130 = phi i32 [ 9, %15 ], [ 1, %8 ], [ 9, %25 ]
  %.094129 = phi i32 [ 20, %15 ], [ 0, %8 ], [ 20, %25 ]
  call void @zend_wrong_parameter_error(i32 noundef %.093130, i32 noundef %.091132, ptr noundef null, i32 noundef %.094129, ptr noundef %.092131) #15
  br label %62

.thread116:                                       ; preds = %25, %.thread112, %17
  %27 = load i32, ptr %5, align 4
  %28 = icmp eq i32 %27, 1
  br i1 %28, label %29, label %33

29:                                               ; preds = %.thread116
  %30 = load double, ptr %3, align 8
  %31 = call double @log(double noundef %30) #15
  store double %31, ptr %1, align 8
  %32 = getelementptr inbounds i8, ptr %1, i64 8
  store i32 5, ptr %32, align 8
  br label %62

33:                                               ; preds = %.thread116
  %34 = load double, ptr %4, align 8
  %35 = fcmp oeq double %34, 2.000000e+00
  br i1 %35, label %36, label %40

36:                                               ; preds = %33
  %37 = load double, ptr %3, align 8
  %38 = call double @log2(double noundef %37) #15
  store double %38, ptr %1, align 8
  %39 = getelementptr inbounds i8, ptr %1, i64 8
  store i32 5, ptr %39, align 8
  br label %62

40:                                               ; preds = %33
  %41 = fcmp oeq double %34, 1.000000e+01
  br i1 %41, label %42, label %46

42:                                               ; preds = %40
  %43 = load double, ptr %3, align 8
  %44 = call double @log10(double noundef %43) #15
  store double %44, ptr %1, align 8
  %45 = getelementptr inbounds i8, ptr %1, i64 8
  store i32 5, ptr %45, align 8
  br label %62

46:                                               ; preds = %40
  %47 = fcmp oeq double %34, 1.000000e+00
  br i1 %47, label %48, label %50

48:                                               ; preds = %46
  store double 0x7FF8000000000000, ptr %1, align 8
  %49 = getelementptr inbounds i8, ptr %1, i64 8
  store i32 5, ptr %49, align 8
  br label %62

50:                                               ; preds = %46
  %51 = fcmp ugt double %34, 0.000000e+00
  br i1 %51, label %55, label %52

52:                                               ; preds = %50
  call void (i32, ptr, ...) @zend_argument_value_error(i32 noundef 2, ptr noundef nonnull @.str.2) #15
  %53 = load ptr, ptr getelementptr inbounds (%struct._zend_executor_globals, ptr @executor_globals, i64 0, i32 50), align 8
  %54 = icmp ne ptr %53, null
  call void @llvm.assume(i1 %54)
  br label %62

55:                                               ; preds = %50
  %56 = load double, ptr %3, align 8
  %57 = call double @log(double noundef %56) #15
  %58 = load double, ptr %4, align 8
  %59 = call double @log(double noundef %58) #15
  %60 = fdiv double %57, %59
  store double %60, ptr %1, align 8
  %61 = getelementptr inbounds i8, ptr %1, i64 8
  store i32 5, ptr %61, align 8
  br label %62

62:                                               ; preds = %55, %52, %48, %42, %36, %29, %.thread123
  ret void
}